Certificate:
    Data:
        Version: 3 (0x2)
        Serial Number: 5 (0x5)
    Signature Algorithm: sha1WithRSAEncryption
        Issuer: O=Grid, OU=GlobusTest, OU=simpleCA-ubuntu, CN=Globus Simple CA
        Validity
            Not Before: Jun 23 18:26:56 2015 GMT
            Not After : Jun 22 18:26:56 2016 GMT
        Subject: O=Grid, OU=GlobusTest, OU=simpleCA-ubuntu, OU=local, CN=alogo
        Subject Public Key Info:
            Public Key Algorithm: rsaEncryption
                Public-Key: (1024 bit)
                Modulus:
                    00:e2:9d:cf:99:31:6a:29:35:5d:8a:32:c9:eb:f1:
                    06:52:9c:dc:b1:0c:79:d2:1e:eb:2b:7d:f8:d1:41:
                    10:4f:a3:ca:c6:6c:51:27:ec:b4:a2:56:2a:87:14:
                    cb:6a:11:52:e3:78:94:35:fb:29:e4:4c:a9:31:ef:
                    85:ec:2e:d5:d4:c6:ba:b2:07:ff:3f:b0:4a:14:da:
                    b4:43:d8:45:4d:5e:0c:0e:fb:89:cd:a0:c0:df:6a:
                    01:23:82:5f:7d:ea:d8:e5:91:ec:84:72:94:55:7f:
                    bf:6e:69:7e:24:38:48:87:71:72:ba:19:72:10:5f:
                    06:d2:d9:7b:68:9a:e0:e1:63
                Exponent: 65537 (0x10001)
        X509v3 extensions:
            Netscape Cert Type: 
                SSL Client, SSL Server, S/MIME, Object Signing
    Signature Algorithm: sha1WithRSAEncryption
         8f:ad:a5:d6:bb:54:75:61:6b:36:f8:e3:cd:a2:cd:b4:17:55:
         d6:69:9f:17:82:b4:bc:e3:b9:d3:cb:d6:5e:fb:7f:9b:20:89:
         b7:c5:64:95:31:16:ec:ca:6d:86:df:06:10:95:b5:f9:31:e7:
         c3:1b:81:ff:7d:64:17:d0:c0:6d:56:3a:84:2c:8f:01:9c:73:
         68:83:d9:35:93:18:fd:94:2d:e2:a9:51:d8:1b:1d:e1:2b:6c:
         5c:c3:e3:21:e8:ef:e2:a2:09:0f:6e:13:c9:6a:84:95:4c:cf:
         79:9c:90:05:a7:2a:8d:34:32:d8:70:55:25:1f:9b:3c:53:00:
         8c:95
-----BEGIN CERTIFICATE-----
MIICQjCCAaugAwIBAgIBBTANBgkqhkiG9w0BAQUFADBZMQ0wCwYDVQQKEwRHcmlk
MRMwEQYDVQQLEwpHbG9idXNUZXN0MRgwFgYDVQQLEw9zaW1wbGVDQS11YnVudHUx
GTAXBgNVBAMTEEdsb2J1cyBTaW1wbGUgQ0EwHhcNMTUwNjIzMTgyNjU2WhcNMTYw
NjIyMTgyNjU2WjBeMQ0wCwYDVQQKEwRHcmlkMRMwEQYDVQQLEwpHbG9idXNUZXN0
MRgwFgYDVQQLEw9zaW1wbGVDQS11YnVudHUxDjAMBgNVBAsTBWxvY2FsMQ4wDAYD
VQQDEwVhbG9nbzCBnzANBgkqhkiG9w0BAQEFAAOBjQAwgYkCgYEA4p3PmTFqKTVd
ijLJ6/EGUpzcsQx50h7rK3340UEQT6PKxmxRJ+y0olYqhxTLahFS43iUNfsp5Eyp
Me+F7C7V1Ma6sgf/P7BKFNq0Q9hFTV4MDvuJzaDA32oBI4JfferY5ZHshHKUVX+/
bml+JDhIh3FyuhlyEF8G0tl7aJrg4WMCAwEAAaMVMBMwEQYJYIZIAYb4QgEBBAQD
AgTwMA0GCSqGSIb3DQEBBQUAA4GBAI+tpda7VHVhazb4482izbQXVdZpnxeCtLzj
udPL1l77f5sgibfFZJUxFuzKbYbfBhCVtfkx58Mbgf99ZBfQwG1WOoQsjwGcc2iD
2TWTGP2ULeKpUdgbHeErbFzD4yHo7+KiCQ9uE8lqhJVMz3mckAWnKo00MthwVSUf
mzxTAIyV
-----END CERTIFICATE-----
